target datalayout = "e-m:e-p270:32:32-p271:32:32-p272:64:64-i64:64-i128:128-f80:128-n8:16:32:64-S128"
target triple = "x86_64-pc-linux-gnu"

%struct.string_elem = type { ptr, ptr }

@stderr = external global ptr, align 8
@.str.72 = private unnamed_addr constant [58 x i8] c"The available encapsulation types for the \22-E\22 flag are:\0A\00", align 1

; Function Attrs: null_pointer_is_valid sspstrong uwtable
define internal void @list_encap_types() #0 {
  %1 = alloca i32, align 4
  %2 = alloca ptr, align 8
  %3 = alloca ptr, align 8
  %4 = alloca i64, align 8
  %5 = alloca i64, align 8
  %6 = alloca ptr, align 8
  %7 = alloca ptr, align 8
  call void @llvm.lifetime.start.p0(i64 4, ptr %1) #14
  call void @llvm.lifetime.start.p0(i64 8, ptr %2) #14
  call void @llvm.lifetime.start.p0(i64 8, ptr %3) #14
  store ptr null, ptr %3, align 8
  call void @llvm.lifetime.start.p0(i64 8, ptr %4) #14
  %8 = call i32 @wtap_get_num_encap_types()
  %9 = sext i32 %8 to i64
  store i64 %9, ptr %4, align 8
  call void @llvm.lifetime.start.p0(i64 8, ptr %5) #14
  store i64 16, ptr %5, align 8
  call void @llvm.lifetime.start.p0(i64 8, ptr %6) #14
  %10 = load i64, ptr %5, align 8
  %11 = icmp eq i64 %10, 1
  br i1 %11, label %12, label %15

12:                                               ; preds = %0
  %13 = load i64, ptr %4, align 8
  %14 = call noalias ptr @g_malloc(i64 noundef %13) #18
  store ptr %14, ptr %6, align 8
  br label %36

15:                                               ; preds = %0
  %16 = load i64, ptr %4, align 8
  %17 = call i1 @llvm.is.constant.i64(i64 %16)
  br i1 %17, label %18, label %31

18:                                               ; preds = %15
  %19 = load i64, ptr %5, align 8
  %20 = icmp eq i64 %19, 0
  br i1 %20, label %26, label %21

21:                                               ; preds = %18
  %22 = load i64, ptr %4, align 8
  %23 = load i64, ptr %5, align 8
  %24 = udiv i64 -1, %23
  %25 = icmp ule i64 %22, %24
  br i1 %25, label %26, label %31

26:                                               ; preds = %21, %18
  %27 = load i64, ptr %4, align 8
  %28 = load i64, ptr %5, align 8
  %29 = mul i64 %27, %28
  %30 = call noalias ptr @g_malloc(i64 noundef %29) #18
  store ptr %30, ptr %6, align 8
  br label %35

31:                                               ; preds = %21, %15
  %32 = load i64, ptr %4, align 8
  %33 = load i64, ptr %5, align 8
  %34 = call noalias ptr @g_malloc_n(i64 noundef %32, i64 noundef %33) #19
  store ptr %34, ptr %6, align 8
  br label %35

35:                                               ; preds = %31, %26
  br label %36

36:                                               ; preds = %35, %12
  %37 = load ptr, ptr %6, align 8
  store ptr %37, ptr %7, align 8
  call void @llvm.lifetime.end.p0(i64 8, ptr %6) #14
  call void @llvm.lifetime.end.p0(i64 8, ptr %5) #14
  call void @llvm.lifetime.end.p0(i64 8, ptr %4) #14
  %38 = load ptr, ptr %7, align 8
  store ptr %38, ptr %2, align 8
  call void (ptr, ...) @cmdarg_err(ptr noundef @.str.72)
  store i32 0, ptr %1, align 4
  br label %39

39:                                               ; preds = %77, %36
  %40 = load i32, ptr %1, align 4
  %41 = call i32 @wtap_get_num_encap_types()
  %42 = icmp slt i32 %40, %41
  br i1 %42, label %43, label %80

43:                                               ; preds = %39
  %44 = load i32, ptr %1, align 4
  %45 = call zeroext i1 @wtap_encap_requires_phdr(i32 noundef %44)
  br i1 %45, label %76, label %46

46:                                               ; preds = %43
  %47 = load i32, ptr %1, align 4
  %48 = call ptr @wtap_encap_name(i32 noundef %47)
  %49 = load ptr, ptr %2, align 8
  %50 = load i32, ptr %1, align 4
  %51 = sext i32 %50 to i64
  %52 = getelementptr %struct.string_elem, ptr %49, i64 %51
  %53 = getelementptr inbounds nuw %struct.string_elem, ptr %52, i32 0, i32 0
  store ptr %48, ptr %53, align 8
  %54 = load ptr, ptr %2, align 8
  %55 = load i32, ptr %1, align 4
  %56 = sext i32 %55 to i64
  %57 = getelementptr %struct.string_elem, ptr %54, i64 %56
  %58 = getelementptr inbounds nuw %struct.string_elem, ptr %57, i32 0, i32 0
  %59 = load ptr, ptr %58, align 8
  %60 = icmp ne ptr %59, null
  br i1 %60, label %61, label %75

61:                                               ; preds = %46
  %62 = load i32, ptr %1, align 4
  %63 = call ptr @wtap_encap_description(i32 noundef %62)
  %64 = load ptr, ptr %2, align 8
  %65 = load i32, ptr %1, align 4
  %66 = sext i32 %65 to i64
  %67 = getelementptr %struct.string_elem, ptr %64, i64 %66
  %68 = getelementptr inbounds nuw %struct.string_elem, ptr %67, i32 0, i32 1
  store ptr %63, ptr %68, align 8
  %69 = load ptr, ptr %3, align 8
  %70 = load ptr, ptr %2, align 8
  %71 = load i32, ptr %1, align 4
  %72 = sext i32 %71 to i64
  %73 = getelementptr %struct.string_elem, ptr %70, i64 %72
  %74 = call ptr @g_slist_insert_sorted(ptr noundef %69, ptr noundef %73, ptr noundef @string_nat_compare)
  store ptr %74, ptr %3, align 8
  br label %75

75:                                               ; preds = %61, %46
  br label %76

76:                                               ; preds = %75, %43
  br label %77

77:                                               ; preds = %76
  %78 = load i32, ptr %1, align 4
  %79 = add i32 %78, 1
  store i32 %79, ptr %1, align 4
  br label %39, !llvm.loop !11

80:                                               ; preds = %39
  %81 = load ptr, ptr %3, align 8
  %82 = load ptr, ptr @stderr, align 8
  call void @g_slist_foreach(ptr noundef %81, ptr noundef @string_elem_print, ptr noundef %82)
  %83 = load ptr, ptr %3, align 8
  call void @g_slist_free(ptr noundef %83)
  %84 = load ptr, ptr %2, align 8
  call void @g_free(ptr noundef %84)
  call void @llvm.lifetime.end.p0(i64 8, ptr %3) #14
  call void @llvm.lifetime.end.p0(i64 8, ptr %2) #14
  call void @llvm.lifetime.end.p0(i64 4, ptr %1) #14
  ret void
}