; Function Attrs: null_pointer_is_valid sspstrong uwtable
define internal fastcc void @list_encap_types() unnamed_addr #0 {
  %1 = tail call i32 @wtap_get_num_encap_types()
  %2 = sext i32 %1 to i64
  %3 = tail call noalias ptr @g_malloc_n(i64 noundef %2, i64 noundef 16) #15
  tail call void (ptr, ...) @cmdarg_err(ptr noundef nonnull @.str.72)
  %4 = tail call i32 @wtap_get_num_encap_types()
  %5 = icmp sgt i32 %4, 0
  br i1 %5, label %.lr.ph, label %._crit_edge

.lr.ph:                                           ; preds = %0, %15
  %indvars.iv = phi i64 [ %indvars.iv.next, %15 ], [ 0, %0 ]
  %.02930 = phi ptr [ %.1, %15 ], [ null, %0 ]
  %6 = trunc nuw nsw i64 %indvars.iv to i32
  %7 = tail call zeroext i1 @wtap_encap_requires_phdr(i32 noundef %6)
  br i1 %7, label %15, label %8

8:                                                ; preds = %.lr.ph
  %9 = tail call ptr @wtap_encap_name(i32 noundef %6)
  %10 = getelementptr %struct.string_elem, ptr %3, i64 %indvars.iv
  store ptr %9, ptr %10, align 8
  %.not = icmp eq ptr %9, null
  br i1 %.not, label %15, label %11

11:                                               ; preds = %8
  %12 = tail call ptr @wtap_encap_description(i32 noundef %6)
  %13 = getelementptr inbounds nuw i8, ptr %10, i64 8
  store ptr %12, ptr %13, align 8
  %14 = tail call ptr @g_slist_insert_sorted(ptr noundef %.02930, ptr noundef %10, ptr noundef nonnull @string_nat_compare)
  br label %15

15:                                               ; preds = %.lr.ph, %11, %8
  %.1 = phi ptr [ %.02930, %.lr.ph ], [ %14, %11 ], [ %.02930, %8 ]
  %indvars.iv.next = add nuw nsw i64 %indvars.iv, 1
  %16 = tail call i32 @wtap_get_num_encap_types()
  %17 = sext i32 %16 to i64
  %18 = icmp slt i64 %indvars.iv.next, %17
  br i1 %18, label %.lr.ph, label %._crit_edge, !llvm.loop !10

._crit_edge:                                      ; preds = %15, %0
  %.029.lcssa = phi ptr [ null, %0 ], [ %.1, %15 ]
  %19 = load ptr, ptr @stderr, align 8
  tail call void @g_slist_foreach(ptr noundef %.029.lcssa, ptr noundef nonnull @string_elem_print, ptr noundef %19)
  tail call void @g_slist_free(ptr noundef %.029.lcssa)
  tail call void @g_free(ptr noundef %3)
  ret void
}